; Function Attrs: mustprogress uwtable
define void @_ZN3gmx30AnalysisDataDisplacementModule15setMSDHistogramERKSt10shared_ptrINS_28AnalysisDataBinAverageModuleEE(ptr noundef nonnull align 8 dereferenceable(32) %0, ptr nocapture noundef nonnull readonly align 8 dereferenceable(16) %1) local_unnamed_addr #1 align 2 personality ptr @__gxx_personality_v0 {
  %3 = alloca %"class.std::shared_ptr.13", align 8
  %4 = getelementptr inbounds i8, ptr %0, i64 24
  %5 = load ptr, ptr %4, align 8
  %6 = getelementptr inbounds i8, ptr %5, i64 72
  %7 = load ptr, ptr %6, align 8
  %8 = icmp eq ptr %7, null
  br i1 %8, label %10, label %9

9:                                                ; preds = %2
  tail call void @_ZN3gmx8internal13assertHandlerEPKcS2_S2_S2_i(ptr noundef nonnull @.str.2, ptr noundef nonnull @.str.3, ptr noundef nonnull @"__PRETTY_FUNCTION__._ZZN3gmx30AnalysisDataDisplacementModule15setMSDHistogramERKSt10shared_ptrINS_28AnalysisDataBinAverageModuleEEENK3$_0clEv", ptr noundef nonnull @.str.1, i32 noundef 144) #24
  unreachable

10:                                               ; preds = %2
  %11 = load ptr, ptr %1, align 8
  store ptr %11, ptr %6, align 8
  %12 = icmp eq ptr %11, null
  %13 = getelementptr inbounds i8, ptr %11, i64 96
  %spec.select.i.i = select i1 %12, ptr null, ptr %13
  store ptr %spec.select.i.i, ptr %3, align 8
  %14 = getelementptr inbounds i8, ptr %3, i64 8
  %15 = getelementptr inbounds i8, ptr %1, i64 8
  %16 = load ptr, ptr %15, align 8
  store ptr %16, ptr %14, align 8
  %.not.i.i.i = icmp eq ptr %16, null
  br i1 %.not.i.i.i, label %_ZNSt10shared_ptrIN3gmx19IAnalysisDataModuleEEC2INS0_28AnalysisDataBinAverageModuleEvEERKS_IT_E.exit, label %17

17:                                               ; preds = %10
  %18 = getelementptr inbounds i8, ptr %16, i64 8
  %19 = load i8, ptr @__libc_single_threaded, align 1
  %.not.i.i.i.i = icmp eq i8 %19, 0
  br i1 %.not.i.i.i.i, label %23, label %20

20:                                               ; preds = %17
  %21 = load i32, ptr %18, align 4
  %22 = add nsw i32 %21, 1
  store i32 %22, ptr %18, align 4
  br label %_ZNSt10shared_ptrIN3gmx19IAnalysisDataModuleEEC2INS0_28AnalysisDataBinAverageModuleEvEERKS_IT_E.exit

23:                                               ; preds = %17
  %24 = atomicrmw volatile add ptr %18, i32 1 acq_rel, align 4
  br label %_ZNSt10shared_ptrIN3gmx19IAnalysisDataModuleEEC2INS0_28AnalysisDataBinAverageModuleEvEERKS_IT_E.exit

_ZNSt10shared_ptrIN3gmx19IAnalysisDataModuleEEC2INS0_28AnalysisDataBinAverageModuleEvEERKS_IT_E.exit: ; preds = %10, %20, %23
  invoke void @_ZN3gmx20AbstractAnalysisData9addModuleERKSt10shared_ptrINS_19IAnalysisDataModuleEE(ptr noundef nonnull align 8 dereferenceable(16) %0, ptr noundef nonnull align 8 dereferenceable(16) %3)
          to label %25 unwind label %61

25:                                               ; preds = %_ZNSt10shared_ptrIN3gmx19IAnalysisDataModuleEEC2INS0_28AnalysisDataBinAverageModuleEvEERKS_IT_E.exit
  %26 = load ptr, ptr %14, align 8
  %.not.i.i.i4 = icmp eq ptr %26, null
  br i1 %.not.i.i.i4, label %_ZNSt10shared_ptrIN3gmx19IAnalysisDataModuleEED2Ev.exit, label %27

27:                                               ; preds = %25
  %28 = getelementptr inbounds i8, ptr %26, i64 8
  %29 = load atomic i64, ptr %28 acquire, align 8
  %30 = icmp eq i64 %29, 4294967297
  %31 = trunc i64 %29 to i32
  br i1 %30, label %32, label %37

32:                                               ; preds = %27
  store i32 0, ptr %28, align 8
  %33 = getelementptr inbounds i8, ptr %26, i64 12
  store i32 0, ptr %33, align 4
  %34 = load ptr, ptr %26, align 8
  %35 = getelementptr inbounds i8, ptr %34, i64 16
  %36 = load ptr, ptr %35, align 8
  call void %36(ptr noundef nonnull align 8 dereferenceable(16) %26) #23
  br label %_ZNSt16_Sp_counted_baseILN9__gnu_cxx12_Lock_policyE2EE24_M_release_last_use_coldEv.exit.sink.split.i.i.i.i

37:                                               ; preds = %27
  %38 = load i8, ptr @__libc_single_threaded, align 1
  %.not.i.i.i.i5 = icmp eq i8 %38, 0
  br i1 %.not.i.i.i.i5, label %41, label %39

39:                                               ; preds = %37
  %40 = add nsw i32 %31, -1
  store i32 %40, ptr %28, align 4
  br label %43

41:                                               ; preds = %37
  %42 = atomicrmw volatile add ptr %28, i32 -1 acq_rel, align 4
  br label %43

43:                                               ; preds = %41, %39
  %.0.i.i.i.i = phi i32 [ %31, %39 ], [ %42, %41 ]
  %44 = icmp eq i32 %.0.i.i.i.i, 1
  br i1 %44, label %45, label %_ZNSt10shared_ptrIN3gmx19IAnalysisDataModuleEED2Ev.exit

45:                                               ; preds = %43
  %46 = load ptr, ptr %26, align 8
  %47 = getelementptr inbounds i8, ptr %46, i64 16
  %48 = load ptr, ptr %47, align 8
  call void %48(ptr noundef nonnull align 8 dereferenceable(16) %26) #23
  %49 = getelementptr inbounds i8, ptr %26, i64 12
  %50 = load i8, ptr @__libc_single_threaded, align 1
  %.not.i.i.i.i.i.i = icmp eq i8 %50, 0
  br i1 %.not.i.i.i.i.i.i, label %54, label %51

51:                                               ; preds = %45
  %52 = load i32, ptr %49, align 4
  %53 = add nsw i32 %52, -1
  store i32 %53, ptr %49, align 4
  br label %56

54:                                               ; preds = %45
  %55 = atomicrmw volatile add ptr %49, i32 -1 acq_rel, align 4
  br label %56

56:                                               ; preds = %54, %51
  %.0.i.i.i.i.i.i = phi i32 [ %52, %51 ], [ %55, %54 ]
  %57 = icmp eq i32 %.0.i.i.i.i.i.i, 1
  br i1 %57, label %_ZNSt16_Sp_counted_baseILN9__gnu_cxx12_Lock_policyE2EE24_M_release_last_use_coldEv.exit.sink.split.i.i.i.i, label %_ZNSt10shared_ptrIN3gmx19IAnalysisDataModuleEED2Ev.exit

_ZNSt16_Sp_counted_baseILN9__gnu_cxx12_Lock_policyE2EE24_M_release_last_use_coldEv.exit.sink.split.i.i.i.i: ; preds = %56, %32
  %58 = load ptr, ptr %26, align 8
  %59 = getelementptr inbounds i8, ptr %58, i64 24
  %60 = load ptr, ptr %59, align 8
  call void %60(ptr noundef nonnull align 8 dereferenceable(16) %26) #23
  br label %_ZNSt10shared_ptrIN3gmx19IAnalysisDataModuleEED2Ev.exit

_ZNSt10shared_ptrIN3gmx19IAnalysisDataModuleEED2Ev.exit: ; preds = %25, %43, %56, %_ZNSt16_Sp_counted_baseILN9__gnu_cxx12_Lock_policyE2EE24_M_release_last_use_coldEv.exit.sink.split.i.i.i.i
  ret void

61:                                               ; preds = %_ZNSt10shared_ptrIN3gmx19IAnalysisDataModuleEEC2INS0_28AnalysisDataBinAverageModuleEvEERKS_IT_E.exit
  %62 = landingpad { ptr, i32 }
          cleanup
  call void @_ZNSt10shared_ptrIN3gmx19IAnalysisDataModuleEED2Ev(ptr noundef nonnull align 8 dereferenceable(16) %3) #23
  resume { ptr, i32 } %62
}